target datalayout = "e-m:e-p270:32:32-p271:32:32-p272:64:64-i64:64-i128:128-f80:128-n8:16:32:64-S128"
target triple = "x86_64-pc-linux-gnu"

%"class.std::__cxx11::basic_string" = type { %"struct.std::__cxx11::basic_string<char>::_Alloc_hider", i64, %union.anon }
%"struct.std::__cxx11::basic_string<char>::_Alloc_hider" = type { ptr }
%union.anon = type { i64, [8 x i8] }

@.str.272 = private unnamed_addr constant [28 x i8] c"Vertex input type is empty.\00", align 1
@.str.273 = private unnamed_addr constant [9 x i8] c"POSITION\00", align 1
@.str.274 = private unnamed_addr constant [9 x i8] c"TEXCOORD\00", align 1
@.str.275 = private unnamed_addr constant [7 x i8] c"NORMAL\00", align 1
@.str.276 = private unnamed_addr constant [6 x i8] c"COLOR\00", align 1
@.str.277 = private unnamed_addr constant [7 x i8] c"VERTEX\00", align 1
@.str.278 = private unnamed_addr constant [9 x i8] c"BINORMAL\00", align 1
@.str.279 = private unnamed_addr constant [12 x i8] c"TEXBINORMAL\00", align 1
@.str.280 = private unnamed_addr constant [8 x i8] c"TANGENT\00", align 1
@.str.281 = private unnamed_addr constant [11 x i8] c"TEXTANGENT\00", align 1
@.str.282 = private unnamed_addr constant [28 x i8] c"Unknown vertex input type \22\00", align 1
@.str.283 = private unnamed_addr constant [13 x i8] c"\22. Ignoring.\00", align 1

; Function Attrs: mustprogress nounwind uwtable
define available_externally noundef i64 @_ZNKSt7__cxx1112basic_stringIcSt11char_traitsIcESaIcEE4sizeEv(ptr noundef nonnull align 8 dereferenceable(32) %0) #7 align 2 {
  %2 = alloca ptr, align 8
  store ptr %0, ptr %2, align 8
  %3 = load ptr, ptr %2, align 8
  %4 = getelementptr inbounds nuw %"class.std::__cxx11::basic_string", ptr %3, i32 0, i32 1
  %5 = load i64, ptr %4, align 8
  ret i64 %5
}

; Function Attrs: inlinehint mustprogress nounwind uwtable
define linkonce_odr noundef zeroext i1 @_ZSteqIcSt11char_traitsIcESaIcEEbRKNSt7__cxx1112basic_stringIT_T0_T1_EEPKS5_(ptr noundef nonnull align 8 dereferenceable(32) %0, ptr noundef %1) #3 comdat {
  %3 = alloca ptr, align 8
  %4 = alloca ptr, align 8
  store ptr %0, ptr %3, align 8
  store ptr %1, ptr %4, align 8
  %5 = load ptr, ptr %3, align 8
  %6 = load ptr, ptr %4, align 8
  %7 = call noundef i32 @_ZNKSt7__cxx1112basic_stringIcSt11char_traitsIcESaIcEE7compareEPKc(ptr noundef nonnull align 8 dereferenceable(32) %5, ptr noundef %6) #4
  %8 = icmp eq i32 %7, 0
  ret i1 %8
}

; Function Attrs: mustprogress nounwind uwtable
define available_externally noundef zeroext i1 @_ZNKSt7__cxx1112basic_stringIcSt11char_traitsIcESaIcEE5emptyEv(ptr noundef nonnull align 8 dereferenceable(32) %0) #7 align 2 {
  %2 = alloca ptr, align 8
  store ptr %0, ptr %2, align 8
  %3 = load ptr, ptr %2, align 8
  %4 = call noundef i64 @_ZNKSt7__cxx1112basic_stringIcSt11char_traitsIcESaIcEE4sizeEv(ptr noundef nonnull align 8 dereferenceable(32) %3) #4
  %5 = icmp eq i64 %4, 0
  ret i1 %5
}

; Function Attrs: mustprogress uwtable
define hidden noundef i32 @_ZN6Assimp13ColladaParser18GetTypeForSemanticERKNSt7__cxx1112basic_stringIcSt11char_traitsIcESaIcEEE(ptr noundef nonnull align 8 dereferenceable(772) %0, ptr noundef nonnull align 8 dereferenceable(32) %1) #5 align 2 {
  %3 = alloca i32, align 4
  %4 = alloca ptr, align 8
  %5 = alloca ptr, align 8
  store ptr %0, ptr %4, align 8
  store ptr %1, ptr %5, align 8
  %6 = load ptr, ptr %5, align 8
  %7 = call noundef zeroext i1 @_ZNKSt7__cxx1112basic_stringIcSt11char_traitsIcESaIcEE5emptyEv(ptr noundef nonnull align 8 dereferenceable(32) %6) #4
  br i1 %7, label %8, label %10

8:                                                ; preds = %2
  %9 = call noundef ptr @_ZN6Assimp13DefaultLogger3getEv()
  call void @_ZN6Assimp6Logger4warnEPKc(ptr noundef nonnull align 8 dereferenceable(12) %9, ptr noundef @.str.272)
  store i32 0, ptr %3, align 4
  br label %53

10:                                               ; preds = %2
  %11 = load ptr, ptr %5, align 8
  %12 = call noundef zeroext i1 @_ZSteqIcSt11char_traitsIcESaIcEEbRKNSt7__cxx1112basic_stringIT_T0_T1_EEPKS5_(ptr noundef nonnull align 8 dereferenceable(32) %11, ptr noundef @.str.273)
  br i1 %12, label %13, label %14

13:                                               ; preds = %10
  store i32 2, ptr %3, align 4
  br label %53

14:                                               ; preds = %10
  %15 = load ptr, ptr %5, align 8
  %16 = call noundef zeroext i1 @_ZSteqIcSt11char_traitsIcESaIcEEbRKNSt7__cxx1112basic_stringIT_T0_T1_EEPKS5_(ptr noundef nonnull align 8 dereferenceable(32) %15, ptr noundef @.str.274)
  br i1 %16, label %17, label %18

17:                                               ; preds = %14
  store i32 4, ptr %3, align 4
  br label %53

18:                                               ; preds = %14
  %19 = load ptr, ptr %5, align 8
  %20 = call noundef zeroext i1 @_ZSteqIcSt11char_traitsIcESaIcEEbRKNSt7__cxx1112basic_stringIT_T0_T1_EEPKS5_(ptr noundef nonnull align 8 dereferenceable(32) %19, ptr noundef @.str.275)
  br i1 %20, label %21, label %22

21:                                               ; preds = %18
  store i32 3, ptr %3, align 4
  br label %53

22:                                               ; preds = %18
  %23 = load ptr, ptr %5, align 8
  %24 = call noundef zeroext i1 @_ZSteqIcSt11char_traitsIcESaIcEEbRKNSt7__cxx1112basic_stringIT_T0_T1_EEPKS5_(ptr noundef nonnull align 8 dereferenceable(32) %23, ptr noundef @.str.276)
  br i1 %24, label %25, label %26

25:                                               ; preds = %22
  store i32 5, ptr %3, align 4
  br label %53

26:                                               ; preds = %22
  %27 = load ptr, ptr %5, align 8
  %28 = call noundef zeroext i1 @_ZSteqIcSt11char_traitsIcESaIcEEbRKNSt7__cxx1112basic_stringIT_T0_T1_EEPKS5_(ptr noundef nonnull align 8 dereferenceable(32) %27, ptr noundef @.str.277)
  br i1 %28, label %29, label %30

29:                                               ; preds = %26
  store i32 1, ptr %3, align 4
  br label %53

30:                                               ; preds = %26
  %31 = load ptr, ptr %5, align 8
  %32 = call noundef zeroext i1 @_ZSteqIcSt11char_traitsIcESaIcEEbRKNSt7__cxx1112basic_stringIT_T0_T1_EEPKS5_(ptr noundef nonnull align 8 dereferenceable(32) %31, ptr noundef @.str.278)
  br i1 %32, label %36, label %33

33:                                               ; preds = %30
  %34 = load ptr, ptr %5, align 8
  %35 = call noundef zeroext i1 @_ZSteqIcSt11char_traitsIcESaIcEEbRKNSt7__cxx1112basic_stringIT_T0_T1_EEPKS5_(ptr noundef nonnull align 8 dereferenceable(32) %34, ptr noundef @.str.279)
  br i1 %35, label %36, label %37

36:                                               ; preds = %33, %30
  store i32 7, ptr %3, align 4
  br label %53

37:                                               ; preds = %33
  %38 = load ptr, ptr %5, align 8
  %39 = call noundef zeroext i1 @_ZSteqIcSt11char_traitsIcESaIcEEbRKNSt7__cxx1112basic_stringIT_T0_T1_EEPKS5_(ptr noundef nonnull align 8 dereferenceable(32) %38, ptr noundef @.str.280)
  br i1 %39, label %43, label %40

40:                                               ; preds = %37
  %41 = load ptr, ptr %5, align 8
  %42 = call noundef zeroext i1 @_ZSteqIcSt11char_traitsIcESaIcEEbRKNSt7__cxx1112basic_stringIT_T0_T1_EEPKS5_(ptr noundef nonnull align 8 dereferenceable(32) %41, ptr noundef @.str.281)
  br i1 %42, label %43, label %44

43:                                               ; preds = %40, %37
  store i32 6, ptr %3, align 4
  br label %53

44:                                               ; preds = %40
  br label %45

45:                                               ; preds = %44
  br label %46

46:                                               ; preds = %45
  br label %47

47:                                               ; preds = %46
  br label %48

48:                                               ; preds = %47
  br label %49

49:                                               ; preds = %48
  br label %50

50:                                               ; preds = %49
  %51 = call noundef ptr @_ZN6Assimp13DefaultLogger3getEv()
  %52 = load ptr, ptr %5, align 8
  call void @_ZN6Assimp6Logger4warnIJRA28_KcRKNSt7__cxx1112basic_stringIcSt11char_traitsIcESaIcEEERA13_S2_EEEvDpOT_(ptr noundef nonnull align 8 dereferenceable(12) %51, ptr noundef nonnull align 1 dereferenceable(28) @.str.282, ptr noundef nonnull align 8 dereferenceable(32) %52, ptr noundef nonnull align 1 dereferenceable(13) @.str.283)
  store i32 0, ptr %3, align 4
  br label %53

53:                                               ; preds = %50, %43, %36, %29, %25, %21, %17, %13, %8
  %54 = load i32, ptr %3, align 4
  ret i32 %54
}