; Function Attrs: mustprogress uwtable
define hidden noundef range(i32 0, 8) i32 @_ZN6Assimp13ColladaParser18GetTypeForSemanticERKNSt7__cxx1112basic_stringIcSt11char_traitsIcESaIcEEE(ptr nonnull readnone align 8 captures(none) %0, ptr noundef nonnull align 8 dereferenceable(32) %1) local_unnamed_addr #3 align 2 {
  %3 = getelementptr inbounds nuw i8, ptr %1, i64 8
  %4 = load i64, ptr %3, align 8
  %5 = icmp eq i64 %4, 0
  br i1 %5, label %6, label %8

6:                                                ; preds = %2
  %7 = tail call noundef ptr @_ZN6Assimp13DefaultLogger3getEv()
  tail call void @_ZN6Assimp6Logger4warnEPKc(ptr noundef nonnull align 8 dereferenceable(12) %7, ptr noundef nonnull @.str.272)
  br label %37

8:                                                ; preds = %2
  %9 = tail call noundef i32 @_ZNKSt7__cxx1112basic_stringIcSt11char_traitsIcESaIcEE7compareEPKc(ptr noundef nonnull align 8 dereferenceable(32) %1, ptr noundef nonnull @.str.273) #35
  %10 = icmp eq i32 %9, 0
  br i1 %10, label %37, label %11

11:                                               ; preds = %8
  %12 = tail call noundef i32 @_ZNKSt7__cxx1112basic_stringIcSt11char_traitsIcESaIcEE7compareEPKc(ptr noundef nonnull align 8 dereferenceable(32) %1, ptr noundef nonnull @.str.274) #35
  %13 = icmp eq i32 %12, 0
  br i1 %13, label %37, label %14

14:                                               ; preds = %11
  %15 = tail call noundef i32 @_ZNKSt7__cxx1112basic_stringIcSt11char_traitsIcESaIcEE7compareEPKc(ptr noundef nonnull align 8 dereferenceable(32) %1, ptr noundef nonnull @.str.275) #35
  %16 = icmp eq i32 %15, 0
  br i1 %16, label %37, label %17

17:                                               ; preds = %14
  %18 = tail call noundef i32 @_ZNKSt7__cxx1112basic_stringIcSt11char_traitsIcESaIcEE7compareEPKc(ptr noundef nonnull align 8 dereferenceable(32) %1, ptr noundef nonnull @.str.276) #35
  %19 = icmp eq i32 %18, 0
  br i1 %19, label %37, label %20

20:                                               ; preds = %17
  %21 = tail call noundef i32 @_ZNKSt7__cxx1112basic_stringIcSt11char_traitsIcESaIcEE7compareEPKc(ptr noundef nonnull align 8 dereferenceable(32) %1, ptr noundef nonnull @.str.277) #35
  %22 = icmp eq i32 %21, 0
  br i1 %22, label %37, label %23

23:                                               ; preds = %20
  %24 = tail call noundef i32 @_ZNKSt7__cxx1112basic_stringIcSt11char_traitsIcESaIcEE7compareEPKc(ptr noundef nonnull align 8 dereferenceable(32) %1, ptr noundef nonnull @.str.278) #35
  %25 = icmp eq i32 %24, 0
  br i1 %25, label %37, label %26

26:                                               ; preds = %23
  %27 = tail call noundef i32 @_ZNKSt7__cxx1112basic_stringIcSt11char_traitsIcESaIcEE7compareEPKc(ptr noundef nonnull align 8 dereferenceable(32) %1, ptr noundef nonnull @.str.279) #35
  %28 = icmp eq i32 %27, 0
  br i1 %28, label %37, label %29

29:                                               ; preds = %26
  %30 = tail call noundef i32 @_ZNKSt7__cxx1112basic_stringIcSt11char_traitsIcESaIcEE7compareEPKc(ptr noundef nonnull align 8 dereferenceable(32) %1, ptr noundef nonnull @.str.280) #35
  %31 = icmp eq i32 %30, 0
  br i1 %31, label %37, label %32

32:                                               ; preds = %29
  %33 = tail call noundef i32 @_ZNKSt7__cxx1112basic_stringIcSt11char_traitsIcESaIcEE7compareEPKc(ptr noundef nonnull align 8 dereferenceable(32) %1, ptr noundef nonnull @.str.281) #35
  %34 = icmp eq i32 %33, 0
  br i1 %34, label %37, label %35

35:                                               ; preds = %32
  %36 = tail call noundef ptr @_ZN6Assimp13DefaultLogger3getEv()
  tail call void @_ZN6Assimp6Logger4warnIJRA28_KcRKNSt7__cxx1112basic_stringIcSt11char_traitsIcESaIcEEERA13_S2_EEEvDpOT_(ptr noundef nonnull align 8 dereferenceable(12) %36, ptr noundef nonnull align 1 dereferenceable(28) @.str.282, ptr noundef nonnull align 8 dereferenceable(32) %1, ptr noundef nonnull align 1 dereferenceable(13) @.str.283)
  br label %37

37:                                               ; preds = %29, %32, %23, %26, %20, %17, %14, %11, %8, %35, %6
  %.0 = phi i32 [ 0, %6 ], [ 0, %35 ], [ 2, %8 ], [ 4, %11 ], [ 3, %14 ], [ 5, %17 ], [ 1, %20 ], [ 7, %26 ], [ 7, %23 ], [ 6, %32 ], [ 6, %29 ]
  ret i32 %.0
}